; Function Attrs: mustprogress uwtable
define hidden noundef ptr @pj_push(ptr noundef %0) local_unnamed_addr #0 {
  %.not = icmp eq ptr %0, null
  br i1 %.not, label %6, label %2

2:                                                ; preds = %1
  %3 = getelementptr inbounds nuw i8, ptr %0, i64 136
  store ptr @_ZL4pushR8PJ_COORDP8PJconsts, ptr %3, align 8, !tbaa !65
  %4 = getelementptr inbounds nuw i8, ptr %0, i64 144
  store ptr @_ZL3popR8PJ_COORDP8PJconsts, ptr %4, align 8, !tbaa !66
  %5 = tail call fastcc noundef ptr @_ZL13setup_pushpopP8PJconsts(ptr noundef nonnull %0)
  br label %15

6:                                                ; preds = %1
  %7 = tail call noundef ptr @_Z6pj_newv()
  %8 = icmp eq ptr %7, null
  br i1 %8, label %15, label %9

9:                                                ; preds = %6
  %10 = getelementptr inbounds nuw i8, ptr %7, i64 8
  store ptr @.str.23, ptr %10, align 8, !tbaa !3
  %11 = getelementptr inbounds nuw i8, ptr %7, i64 16
  store ptr @_ZL8des_push, ptr %11, align 8, !tbaa !36
  %12 = getelementptr inbounds nuw i8, ptr %7, i64 360
  store i32 0, ptr %12, align 8, !tbaa !37
  %13 = getelementptr inbounds nuw i8, ptr %7, i64 380
  store i32 4, ptr %13, align 4, !tbaa !38
  %14 = getelementptr inbounds nuw i8, ptr %7, i64 384
  store i32 1, ptr %14, align 8, !tbaa !39
  br label %15

15:                                               ; preds = %6, %9, %2
  %.0 = phi ptr [ %5, %2 ], [ %7, %9 ], [ null, %6 ]
  ret ptr %.0
}